target datalayout = "e-m:e-p270:32:32-p271:32:32-p272:64:64-i64:64-i128:128-f80:128-n8:16:32:64-S128"
target triple = "x86_64-pc-linux-gnu"

%struct.OSSL_TIME = type { i64 }
%struct.quic_reactor_st = type { %struct.bio_poll_descriptor_st, %struct.bio_poll_descriptor_st, %struct.OSSL_TIME, ptr, ptr, ptr, %struct.rio_notifier_st, ptr, i64, i8 }
%struct.bio_poll_descriptor_st = type { i32, %union.anon }
%union.anon = type { ptr }
%struct.rio_notifier_st = type { i32, i32 }

; Function Attrs: nounwind uwtable
define i32 @ossl_quic_reactor_init(ptr noundef %0, ptr noundef %1, ptr noundef %2, ptr noundef %3, i64 %4, i64 noundef %5) #0 {
  %7 = alloca i32, align 4
  %8 = alloca %struct.OSSL_TIME, align 8
  %9 = alloca ptr, align 8
  %10 = alloca ptr, align 8
  %11 = alloca ptr, align 8
  %12 = alloca ptr, align 8
  %13 = alloca i64, align 8
  %14 = getelementptr inbounds nuw %struct.OSSL_TIME, ptr %8, i32 0, i32 0
  store i64 %4, ptr %14, align 8
  store ptr %0, ptr %9, align 8, !tbaa !3
  store ptr %1, ptr %10, align 8, !tbaa !8
  store ptr %2, ptr %11, align 8, !tbaa !8
  store ptr %3, ptr %12, align 8, !tbaa !9
  store i64 %5, ptr %13, align 8, !tbaa !11
  %15 = load ptr, ptr %9, align 8, !tbaa !3
  %16 = getelementptr inbounds nuw %struct.quic_reactor_st, ptr %15, i32 0, i32 0
  %17 = getelementptr inbounds nuw %struct.bio_poll_descriptor_st, ptr %16, i32 0, i32 0
  store i32 0, ptr %17, align 8, !tbaa !13
  %18 = load ptr, ptr %9, align 8, !tbaa !3
  %19 = getelementptr inbounds nuw %struct.quic_reactor_st, ptr %18, i32 0, i32 1
  %20 = getelementptr inbounds nuw %struct.bio_poll_descriptor_st, ptr %19, i32 0, i32 0
  store i32 0, ptr %20, align 8, !tbaa !20
  %21 = load ptr, ptr %9, align 8, !tbaa !3
  %22 = getelementptr inbounds nuw %struct.quic_reactor_st, ptr %21, i32 0, i32 9
  %23 = load i8, ptr %22, align 8
  %24 = and i8 %23, -2
  %25 = or i8 %24, 0
  store i8 %25, ptr %22, align 8
  %26 = load ptr, ptr %9, align 8, !tbaa !3
  %27 = getelementptr inbounds nuw %struct.quic_reactor_st, ptr %26, i32 0, i32 9
  %28 = load i8, ptr %27, align 8
  %29 = and i8 %28, -3
  %30 = or i8 %29, 0
  store i8 %30, ptr %27, align 8
  %31 = load ptr, ptr %9, align 8, !tbaa !3
  %32 = getelementptr inbounds nuw %struct.quic_reactor_st, ptr %31, i32 0, i32 9
  %33 = load i8, ptr %32, align 8
  %34 = and i8 %33, -5
  %35 = or i8 %34, 0
  store i8 %35, ptr %32, align 8
  %36 = load ptr, ptr %9, align 8, !tbaa !3
  %37 = getelementptr inbounds nuw %struct.quic_reactor_st, ptr %36, i32 0, i32 9
  %38 = load i8, ptr %37, align 8
  %39 = and i8 %38, -9
  %40 = or i8 %39, 0
  store i8 %40, ptr %37, align 8
  %41 = load ptr, ptr %9, align 8, !tbaa !3
  %42 = getelementptr inbounds nuw %struct.quic_reactor_st, ptr %41, i32 0, i32 2
  call void @llvm.memcpy.p0.p0.i64(ptr align 8 %42, ptr align 8 %8, i64 8, i1 false), !tbaa.struct !21
  %43 = load ptr, ptr %10, align 8, !tbaa !8
  %44 = load ptr, ptr %9, align 8, !tbaa !3
  %45 = getelementptr inbounds nuw %struct.quic_reactor_st, ptr %44, i32 0, i32 3
  store ptr %43, ptr %45, align 8, !tbaa !22
  %46 = load ptr, ptr %11, align 8, !tbaa !8
  %47 = load ptr, ptr %9, align 8, !tbaa !3
  %48 = getelementptr inbounds nuw %struct.quic_reactor_st, ptr %47, i32 0, i32 4
  store ptr %46, ptr %48, align 8, !tbaa !23
  %49 = load ptr, ptr %12, align 8, !tbaa !9
  %50 = load ptr, ptr %9, align 8, !tbaa !3
  %51 = getelementptr inbounds nuw %struct.quic_reactor_st, ptr %50, i32 0, i32 5
  store ptr %49, ptr %51, align 8, !tbaa !24
  %52 = load ptr, ptr %9, align 8, !tbaa !3
  %53 = getelementptr inbounds nuw %struct.quic_reactor_st, ptr %52, i32 0, i32 8
  store i64 0, ptr %53, align 8, !tbaa !25
  %54 = load i64, ptr %13, align 8, !tbaa !11
  %55 = and i64 %54, 1
  %56 = icmp ne i64 %55, 0
  br i1 %56, label %57, label %77

57:                                               ; preds = %6
  %58 = load ptr, ptr %9, align 8, !tbaa !3
  %59 = getelementptr inbounds nuw %struct.quic_reactor_st, ptr %58, i32 0, i32 6
  %60 = call i32 @ossl_rio_notifier_init(ptr noundef %59)
  %61 = icmp ne i32 %60, 0
  br i1 %61, label %63, label %62

62:                                               ; preds = %57
  store i32 0, ptr %7, align 4
  br label %84

63:                                               ; preds = %57
  %64 = call ptr @ossl_crypto_condvar_new()
  %65 = load ptr, ptr %9, align 8, !tbaa !3
  %66 = getelementptr inbounds nuw %struct.quic_reactor_st, ptr %65, i32 0, i32 7
  store ptr %64, ptr %66, align 8, !tbaa !26
  %67 = icmp eq ptr %64, null
  br i1 %67, label %68, label %71

68:                                               ; preds = %63
  %69 = load ptr, ptr %9, align 8, !tbaa !3
  %70 = getelementptr inbounds nuw %struct.quic_reactor_st, ptr %69, i32 0, i32 6
  call void @ossl_rio_notifier_cleanup(ptr noundef %70)
  store i32 0, ptr %7, align 4
  br label %84

71:                                               ; preds = %63
  %72 = load ptr, ptr %9, align 8, !tbaa !3
  %73 = getelementptr inbounds nuw %struct.quic_reactor_st, ptr %72, i32 0, i32 9
  %74 = load i8, ptr %73, align 8
  %75 = and i8 %74, -17
  %76 = or i8 %75, 16
  store i8 %76, ptr %73, align 8
  br label %83

77:                                               ; preds = %6
  %78 = load ptr, ptr %9, align 8, !tbaa !3
  %79 = getelementptr inbounds nuw %struct.quic_reactor_st, ptr %78, i32 0, i32 9
  %80 = load i8, ptr %79, align 8
  %81 = and i8 %80, -17
  %82 = or i8 %81, 0
  store i8 %82, ptr %79, align 8
  br label %83

83:                                               ; preds = %77, %71
  store i32 1, ptr %7, align 4
  br label %84

84:                                               ; preds = %83, %68, %62
  %85 = load i32, ptr %7, align 4
  ret i32 %85
}