; Function Attrs: nounwind uwtable
define range(i32 0, 2) i32 @ossl_quic_reactor_init(ptr noundef initializes((0, 4), (16, 20), (32, 64), (80, 88)) %0, ptr noundef %1, ptr noundef %2, ptr noundef %3, i64 %4, i64 noundef %5) local_unnamed_addr #0 {
  store i32 0, ptr %0, align 8, !tbaa !3
  %7 = getelementptr inbounds nuw i8, ptr %0, i64 16
  store i32 0, ptr %7, align 8, !tbaa !15
  %8 = getelementptr inbounds nuw i8, ptr %0, i64 88
  %9 = load i8, ptr %8, align 8
  %10 = and i8 %9, -16
  store i8 %10, ptr %8, align 8
  %11 = getelementptr inbounds nuw i8, ptr %0, i64 32
  store i64 %4, ptr %11, align 8, !tbaa !16
  %12 = getelementptr inbounds nuw i8, ptr %0, i64 40
  store ptr %1, ptr %12, align 8, !tbaa !17
  %13 = getelementptr inbounds nuw i8, ptr %0, i64 48
  store ptr %2, ptr %13, align 8, !tbaa !18
  %14 = getelementptr inbounds nuw i8, ptr %0, i64 56
  store ptr %3, ptr %14, align 8, !tbaa !19
  %15 = getelementptr inbounds nuw i8, ptr %0, i64 80
  store i64 0, ptr %15, align 8, !tbaa !20
  %16 = and i64 %5, 1
  %.not = icmp eq i64 %16, 0
  br i1 %.not, label %28, label %17

17:                                               ; preds = %6
  %18 = getelementptr inbounds nuw i8, ptr %0, i64 64
  %19 = tail call i32 @ossl_rio_notifier_init(ptr noundef nonnull %18) #10
  %.not20 = icmp eq i32 %19, 0
  br i1 %.not20, label %31, label %20

20:                                               ; preds = %17
  %21 = tail call ptr @ossl_crypto_condvar_new() #10
  %22 = getelementptr inbounds nuw i8, ptr %0, i64 72
  store ptr %21, ptr %22, align 8, !tbaa !21
  %23 = icmp eq ptr %21, null
  br i1 %23, label %24, label %25

24:                                               ; preds = %20
  tail call void @ossl_rio_notifier_cleanup(ptr noundef nonnull %18) #10
  br label %31

25:                                               ; preds = %20
  %26 = load i8, ptr %8, align 8
  %27 = or i8 %26, 16
  br label %30

28:                                               ; preds = %6
  %29 = and i8 %9, -32
  br label %30

30:                                               ; preds = %28, %25
  %storemerge = phi i8 [ %29, %28 ], [ %27, %25 ]
  store i8 %storemerge, ptr %8, align 8
  br label %31

31:                                               ; preds = %17, %30, %24
  %.0 = phi i32 [ 0, %24 ], [ 1, %30 ], [ 0, %17 ]
  ret i32 %.0
}